target datalayout = "e-m:e-p270:32:32-p271:32:32-p272:64:64-i64:64-i128:128-f80:128-n8:16:32:64-S128"
target triple = "x86_64-pc-linux-gnu"

%"class.ncnn::ParamDict" = type { ptr, ptr }

; Function Attrs: mustprogress uwtable
define hidden void @_ZN4ncnn7flattenERKNS_3MatERS0_RKNS_6OptionE(ptr noundef nonnull align 8 dereferenceable(72) %0, ptr noundef nonnull align 8 dereferenceable(72) %1, ptr noundef nonnull align 8 dereferenceable(64) %2) #0 personality ptr @__gxx_personality_v0 {
  %4 = alloca ptr, align 8
  %5 = alloca ptr, align 8
  %6 = alloca ptr, align 8
  %7 = alloca ptr, align 8
  %8 = alloca %"class.ncnn::ParamDict", align 8
  %9 = alloca ptr, align 8
  %10 = alloca i32, align 4
  store ptr %0, ptr %4, align 8, !tbaa !4
  store ptr %1, ptr %5, align 8, !tbaa !4
  store ptr %2, ptr %6, align 8, !tbaa !51
  call void @llvm.lifetime.start.p0(i64 8, ptr %7) #9
  %11 = call noundef ptr @_ZN4ncnn12create_layerEi(i32 noundef 14)
  store ptr %11, ptr %7, align 8, !tbaa !39
  call void @llvm.lifetime.start.p0(i64 16, ptr %8) #9
  call void @_ZN4ncnn9ParamDictC1Ev(ptr noundef nonnull align 8 dereferenceable(16) %8)
  %12 = load ptr, ptr %7, align 8, !tbaa !39
  %13 = load ptr, ptr %12, align 8, !tbaa !30
  %14 = getelementptr inbounds ptr, ptr %13, i64 2
  %15 = load ptr, ptr %14, align 8
  %16 = invoke noundef i32 %15(ptr noundef nonnull align 8 dereferenceable(208) %12, ptr noundef nonnull align 8 dereferenceable(16) %8)
          to label %17 unwind label %48

17:                                               ; preds = %3
  %18 = load ptr, ptr %7, align 8, !tbaa !39
  %19 = load ptr, ptr %6, align 8, !tbaa !51
  %20 = load ptr, ptr %18, align 8, !tbaa !30
  %21 = getelementptr inbounds ptr, ptr %20, i64 4
  %22 = load ptr, ptr %21, align 8
  %23 = invoke noundef i32 %22(ptr noundef nonnull align 8 dereferenceable(208) %18, ptr noundef nonnull align 8 dereferenceable(64) %19)
          to label %24 unwind label %48

24:                                               ; preds = %17
  %25 = load ptr, ptr %7, align 8, !tbaa !39
  %26 = load ptr, ptr %4, align 8, !tbaa !4
  %27 = load ptr, ptr %5, align 8, !tbaa !4
  %28 = load ptr, ptr %6, align 8, !tbaa !51
  %29 = load ptr, ptr %25, align 8, !tbaa !30
  %30 = getelementptr inbounds ptr, ptr %29, i64 7
  %31 = load ptr, ptr %30, align 8
  %32 = invoke noundef i32 %31(ptr noundef nonnull align 8 dereferenceable(208) %25, ptr noundef nonnull align 8 dereferenceable(72) %26, ptr noundef nonnull align 8 dereferenceable(72) %27, ptr noundef nonnull align 8 dereferenceable(64) %28)
          to label %33 unwind label %48

33:                                               ; preds = %24
  %34 = load ptr, ptr %7, align 8, !tbaa !39
  %35 = load ptr, ptr %6, align 8, !tbaa !51
  %36 = load ptr, ptr %34, align 8, !tbaa !30
  %37 = getelementptr inbounds ptr, ptr %36, i64 5
  %38 = load ptr, ptr %37, align 8
  %39 = invoke noundef i32 %38(ptr noundef nonnull align 8 dereferenceable(208) %34, ptr noundef nonnull align 8 dereferenceable(64) %35)
          to label %40 unwind label %48

40:                                               ; preds = %33
  %41 = load ptr, ptr %7, align 8, !tbaa !39
  %42 = icmp eq ptr %41, null
  br i1 %42, label %47, label %43

43:                                               ; preds = %40
  %44 = load ptr, ptr %41, align 8, !tbaa !30
  %45 = getelementptr inbounds ptr, ptr %44, i64 1
  %46 = load ptr, ptr %45, align 8
  call void %46(ptr noundef nonnull align 8 dereferenceable(208) %41) #9
  br label %47

47:                                               ; preds = %43, %40
  call void @_ZN4ncnn9ParamDictD1Ev(ptr noundef nonnull align 8 dereferenceable(16) %8) #9
  call void @llvm.lifetime.end.p0(i64 16, ptr %8) #9
  call void @llvm.lifetime.end.p0(i64 8, ptr %7) #9
  ret void

48:                                               ; preds = %33, %24, %17, %3
  %49 = landingpad { ptr, i32 }
          cleanup
  %50 = extractvalue { ptr, i32 } %49, 0
  store ptr %50, ptr %9, align 8
  %51 = extractvalue { ptr, i32 } %49, 1
  store i32 %51, ptr %10, align 4
  call void @_ZN4ncnn9ParamDictD1Ev(ptr noundef nonnull align 8 dereferenceable(16) %8) #9
  call void @llvm.lifetime.end.p0(i64 16, ptr %8) #9
  call void @llvm.lifetime.end.p0(i64 8, ptr %7) #9
  br label %52

52:                                               ; preds = %48
  %53 = load ptr, ptr %9, align 8
  %54 = load i32, ptr %10, align 4
  %55 = insertvalue { ptr, i32 } poison, ptr %53, 0
  %56 = insertvalue { ptr, i32 } %55, i32 %54, 1
  resume { ptr, i32 } %56
}